target datalayout = "e-m:e-p270:32:32-p271:32:32-p272:64:64-i64:64-i128:128-f80:128-n8:16:32:64-S128"
target triple = "x86_64-unknown-linux-gnu"

%"class.std::basic_string_view" = type { i64, ptr }
%"struct.absl::lts_20230802::container_internal::internal_compressed_tuple::Storage" = type { %"class.absl::lts_20230802::container_internal::CommonFields" }
%"class.absl::lts_20230802::container_internal::CommonFields" = type { ptr, ptr, i64, %"class.absl::lts_20230802::container_internal::CompressedTuple.0" }
%"class.absl::lts_20230802::container_internal::CompressedTuple.0" = type { %"struct.absl::lts_20230802::container_internal::internal_compressed_tuple::CompressedTupleImpl.1" }
%"struct.absl::lts_20230802::container_internal::internal_compressed_tuple::CompressedTupleImpl.1" = type { %"struct.absl::lts_20230802::container_internal::internal_compressed_tuple::Storage.2" }
%"struct.absl::lts_20230802::container_internal::internal_compressed_tuple::Storage.2" = type { i64 }
%"class.std::__cxx11::basic_string" = type { %"struct.std::__cxx11::basic_string<char>::_Alloc_hider", i64, %union.anon }
%"struct.std::__cxx11::basic_string<char>::_Alloc_hider" = type { ptr }
%union.anon = type { i64, [8 x i8] }
%"class.google::protobuf::internal::SymbolBase" = type { i8 }
%"struct.google::protobuf::compiler::cpp::Options" = type <{ ptr, ptr, %"class.std::__cxx11::basic_string", %"class.std::__cxx11::basic_string", %"class.std::__cxx11::basic_string", %"class.std::__cxx11::basic_string", %"struct.google::protobuf::compiler::cpp::FieldListenerOptions", i32, i32, i8, i8, i8, i8, i8, i8, i8, i8, i8, i8, i8, i8, i8, i8, [2 x i8] }>
%"struct.google::protobuf::compiler::cpp::FieldListenerOptions" = type { i8, %"class.absl::lts_20230802::flat_hash_set" }
%"class.absl::lts_20230802::flat_hash_set" = type { %"class.absl::lts_20230802::container_internal::raw_hash_set" }
%"class.absl::lts_20230802::container_internal::raw_hash_set" = type { %"class.absl::lts_20230802::container_internal::CompressedTuple" }
%"class.absl::lts_20230802::container_internal::CompressedTuple" = type { %"struct.absl::lts_20230802::container_internal::internal_compressed_tuple::CompressedTupleImpl" }
%"struct.absl::lts_20230802::container_internal::internal_compressed_tuple::CompressedTupleImpl" = type { %"struct.absl::lts_20230802::container_internal::internal_compressed_tuple::Storage" }
%"class.absl::lts_20230802::log_internal::Voidify" = type { i8 }
%"class.absl::lts_20230802::log_internal::LogMessageFatal" = type { %"class.absl::lts_20230802::log_internal::LogMessage" }
%"class.absl::lts_20230802::log_internal::LogMessage" = type { %"class.absl::lts_20230802::base_internal::ErrnoSaver", %"class.std::unique_ptr" }
%"class.absl::lts_20230802::base_internal::ErrnoSaver" = type { i32 }
%"class.std::unique_ptr" = type { %"struct.std::__uniq_ptr_data" }
%"struct.std::__uniq_ptr_data" = type { %"class.std::__uniq_ptr_impl" }
%"class.std::__uniq_ptr_impl" = type { %"class.std::tuple" }
%"class.std::tuple" = type { %"struct.std::_Tuple_impl" }
%"struct.std::_Tuple_impl" = type { %"struct.std::_Head_base.35" }
%"struct.std::_Head_base.35" = type { ptr }
%"class.google::protobuf::FileDescriptor" = type { %"class.google::protobuf::internal::SymbolBase", i8, i8, i32, ptr, ptr, ptr, i32, ptr, i32, i32, i32, i32, i32, i32, ptr, ptr, ptr, ptr, ptr, ptr, ptr, ptr, ptr, ptr, ptr, ptr }
%"class.google::protobuf::Message" = type { %"class.google::protobuf::MessageLite" }
%"class.google::protobuf::MessageLite" = type { ptr, %"class.google::protobuf::internal::InternalMetadata" }
%"class.google::protobuf::internal::InternalMetadata" = type { i64 }
%"class.google::protobuf::internal::HasBits" = type { [1 x i32] }
%"class.google::protobuf::internal::CachedSize" = type { i32 }
%"class.google::protobuf::internal::RepeatedPtrFieldBase" = type { ptr, i32, i32, ptr }
%"struct.google::protobuf::internal::ArenaStringPtr" = type { %"class.google::protobuf::internal::TaggedStringPtr" }
%"class.google::protobuf::internal::TaggedStringPtr" = type { ptr }
%"class.google::protobuf::internal::ExtensionSet" = type { ptr, i16, i16, %"union.google::protobuf::internal::ExtensionSet::AllocatedData" }
%"union.google::protobuf::internal::ExtensionSet::AllocatedData" = type { ptr }
%"class.google::protobuf::RepeatedPtrField" = type { %"class.google::protobuf::internal::RepeatedPtrFieldBase" }
%"class.google::protobuf::FileOptions" = type { %"class.google::protobuf::Message", %union.anon.203 }
%union.anon.203 = type { %"struct.google::protobuf::FileOptions::Impl_" }
%"struct.google::protobuf::FileOptions::Impl_" = type <{ %"class.google::protobuf::internal::ExtensionSet", %"class.google::protobuf::internal::HasBits", %"class.google::protobuf::internal::CachedSize", %"class.google::protobuf::RepeatedPtrField", %"struct.google::protobuf::internal::ArenaStringPtr", %"struct.google::protobuf::internal::ArenaStringPtr", %"struct.google::protobuf::internal::ArenaStringPtr", %"struct.google::protobuf::internal::ArenaStringPtr", %"struct.google::protobuf::internal::ArenaStringPtr", %"struct.google::protobuf::internal::ArenaStringPtr", %"struct.google::protobuf::internal::ArenaStringPtr", %"struct.google::protobuf::internal::ArenaStringPtr", %"struct.google::protobuf::internal::ArenaStringPtr", %"struct.google::protobuf::internal::ArenaStringPtr", ptr, i8, i8, i8, i8, i8, i8, i8, i8, i32, i8, [3 x i8] }>

@.str.44 = private unnamed_addr constant [139 x i8] c"generated/home/dtcxzyw/WorkSpace/Projects/compilers/llvm-opt-benchmark/bench/protobuf/protobuf/src/google/protobuf/compiler/cpp/helpers.cc\00", align 1
@.str.142 = private unnamed_addr constant [136 x i8] c"Proto states optimize_for = CODE_SIZE, but we cannot honor that because it contains custom option extensions defined in the same proto.\00", align 1
@.str.143 = private unnamed_addr constant [44 x i8] c"Unknown optimization enforcement requested.\00", align 1

; Function Attrs: noreturn nounwind uwtable
define linkonce_odr hidden void @__clang_call_terminate(ptr noundef %0) #13 comdat {
  %2 = call ptr @__cxa_begin_catch(ptr %0) #3
  call void @_ZSt9terminatev() #23
  unreachable
}

; Function Attrs: mustprogress nounwind uwtable
define linkonce_odr hidden noundef i64 @_ZNSt11char_traitsIcE6lengthEPKc(ptr noundef %__s) #5 comdat align 2 {
entry:
  %__s.addr = alloca ptr, align 8
  store ptr %__s, ptr %__s.addr, align 8
  %0 = load ptr, ptr %__s.addr, align 8
  %call = call i64 @strlen(ptr noundef %0) #3
  ret i64 %call
}

; Function Attrs: mustprogress nounwind uwtable
define linkonce_odr hidden void @_ZNSt17basic_string_viewIcSt11char_traitsIcEEC2EPKc(ptr noundef nonnull align 8 dereferenceable(16) %this, ptr noundef nonnull %__str) unnamed_addr #5 comdat align 2 personality ptr @__gxx_personality_v0 {
entry:
  %this.addr = alloca ptr, align 8
  %__str.addr = alloca ptr, align 8
  store ptr %this, ptr %this.addr, align 8
  store ptr %__str, ptr %__str.addr, align 8
  %this1 = load ptr, ptr %this.addr, align 8
  %_M_len = getelementptr inbounds %"class.std::basic_string_view", ptr %this1, i32 0, i32 0
  %0 = load ptr, ptr %__str.addr, align 8
  %call = invoke noundef i64 @_ZNSt11char_traitsIcE6lengthEPKc(ptr noundef %0)
          to label %invoke.cont unwind label %terminate.lpad

invoke.cont:                                      ; preds = %entry
  store i64 %call, ptr %_M_len, align 8
  %_M_str = getelementptr inbounds %"class.std::basic_string_view", ptr %this1, i32 0, i32 1
  %1 = load ptr, ptr %__str.addr, align 8
  store ptr %1, ptr %_M_str, align 8
  ret void

terminate.lpad:                                   ; preds = %entry
  %2 = landingpad { ptr, i32 }
          catch ptr null
  %3 = extractvalue { ptr, i32 } %2, 0
  call void @__clang_call_terminate(ptr %3) #23
  unreachable
}

; Function Attrs: mustprogress nounwind uwtable
define linkonce_odr hidden noundef i32 @_ZNK6google8protobuf11FileOptions22_internal_optimize_forEv(ptr noundef nonnull align 8 dereferenceable(176) %this) #5 comdat align 2 {
entry:
  %this.addr = alloca ptr, align 8
  store ptr %this, ptr %this.addr, align 8
  %this1 = load ptr, ptr %this.addr, align 8
  %0 = getelementptr inbounds %"class.google::protobuf::FileOptions", ptr %this1, i32 0, i32 1
  %optimize_for_ = getelementptr inbounds %"struct.google::protobuf::FileOptions::Impl_", ptr %0, i32 0, i32 23
  %1 = load i32, ptr %optimize_for_, align 8
  ret i32 %1
}

; Function Attrs: mustprogress nounwind uwtable
define linkonce_odr hidden void @_ZNKO4absl12lts_2023080212log_internal7VoidifyaaINS1_10LogMessageEEEvRKT_(ptr noundef nonnull align 1 dereferenceable(1) %this, ptr noundef nonnull align 8 dereferenceable(16) %0) #5 comdat align 2 {
entry:
  %this.addr = alloca ptr, align 8
  %.addr = alloca ptr, align 8
  store ptr %this, ptr %this.addr, align 8
  store ptr %0, ptr %.addr, align 8
  ret void
}

; Function Attrs: mustprogress uwtable
define linkonce_odr hidden noundef nonnull align 8 dereferenceable(16) ptr @_ZN4absl12lts_2023080212log_internal10LogMessagelsILi136EEERS2_RAT__Kc(ptr noundef nonnull align 8 dereferenceable(16) %this, ptr noundef nonnull align 1 dereferenceable(136) %buf) #4 comdat align 2 {
entry:
  %this.addr = alloca ptr, align 8
  %buf.addr = alloca ptr, align 8
  %agg.tmp = alloca %"class.std::basic_string_view", align 8
  store ptr %this, ptr %this.addr, align 8
  store ptr %buf, ptr %buf.addr, align 8
  %this1 = load ptr, ptr %this.addr, align 8
  %0 = load ptr, ptr %buf.addr, align 8
  %arraydecay = getelementptr inbounds [136 x i8], ptr %0, i64 0, i64 0
  call void @_ZNSt17basic_string_viewIcSt11char_traitsIcEEC2EPKc(ptr noundef nonnull align 8 dereferenceable(16) %agg.tmp, ptr noundef %arraydecay) #3
  %1 = getelementptr inbounds { i64, ptr }, ptr %agg.tmp, i32 0, i32 0
  %2 = load i64, ptr %1, align 8
  %3 = getelementptr inbounds { i64, ptr }, ptr %agg.tmp, i32 0, i32 1
  %4 = load ptr, ptr %3, align 8
  call void @_ZN4absl12lts_2023080212log_internal10LogMessage19CopyToEncodedBufferILNS2_10StringTypeE0EEEvSt17basic_string_viewIcSt11char_traitsIcEE(ptr noundef nonnull align 8 dereferenceable(16) %this1, i64 %2, ptr %4)
  ret ptr %this1
}

; Function Attrs: mustprogress nounwind uwtable
define linkonce_odr hidden noundef nonnull align 8 dereferenceable(16) ptr @_ZN4absl12lts_2023080212log_internal10LogMessage14InternalStreamEv(ptr noundef nonnull align 8 dereferenceable(16) %this) #5 comdat align 2 {
entry:
  %this.addr = alloca ptr, align 8
  store ptr %this, ptr %this.addr, align 8
  %this1 = load ptr, ptr %this.addr, align 8
  ret ptr %this1
}

; Function Attrs: mustprogress uwtable
define linkonce_odr hidden noundef i32 @_ZNK6google8protobuf11FileOptions12optimize_forEv(ptr noundef nonnull align 8 dereferenceable(176) %this) #4 comdat align 2 {
entry:
  %this.addr = alloca ptr, align 8
  store ptr %this, ptr %this.addr, align 8
  %this1 = load ptr, ptr %this.addr, align 8
  %call = call noundef i32 @_ZNK6google8protobuf11FileOptions22_internal_optimize_forEv(ptr noundef nonnull align 8 dereferenceable(176) %this1)
  ret i32 %call
}

; Function Attrs: mustprogress nounwind uwtable
define linkonce_odr hidden noundef nonnull align 8 dereferenceable(176) ptr @_ZNK6google8protobuf14FileDescriptor7optionsEv(ptr noundef nonnull align 8 dereferenceable(168) %this) #5 comdat align 2 {
entry:
  %this.addr = alloca ptr, align 8
  store ptr %this, ptr %this.addr, align 8
  %this1 = load ptr, ptr %this.addr, align 8
  %options_ = getelementptr inbounds %"class.google::protobuf::FileDescriptor", ptr %this1, i32 0, i32 22
  %0 = load ptr, ptr %options_, align 8
  ret ptr %0
}

; Function Attrs: mustprogress uwtable
define hidden noundef i32 @_ZN6google8protobuf8compiler3cpp14GetOptimizeForEPKNS0_14FileDescriptorERKNS2_7OptionsEPb(ptr noundef %file, ptr noundef nonnull align 8 dereferenceable(206) %options, ptr noundef %has_opt_codesize_extension) #4 personality ptr @__gxx_personality_v0 {
entry:
  %retval = alloca i32, align 4
  %file.addr = alloca ptr, align 8
  %options.addr = alloca ptr, align 8
  %has_opt_codesize_extension.addr = alloca ptr, align 8
  %ref.tmp = alloca %"class.absl::lts_20230802::log_internal::Voidify", align 1
  %ref.tmp16 = alloca %"class.absl::lts_20230802::log_internal::LogMessage", align 8
  %exn.slot = alloca ptr, align 8
  %ehselector.slot = alloca i32, align 4
  %ref.tmp25 = alloca %"class.absl::lts_20230802::log_internal::Voidify", align 1
  %ref.tmp26 = alloca %"class.absl::lts_20230802::log_internal::LogMessageFatal", align 8
  store ptr %file, ptr %file.addr, align 8
  store ptr %options, ptr %options.addr, align 8
  store ptr %has_opt_codesize_extension, ptr %has_opt_codesize_extension.addr, align 8
  %0 = load ptr, ptr %has_opt_codesize_extension.addr, align 8
  %tobool = icmp ne ptr %0, null
  br i1 %tobool, label %if.then, label %if.end

if.then:                                          ; preds = %entry
  %1 = load ptr, ptr %has_opt_codesize_extension.addr, align 8
  store i8 0, ptr %1, align 1
  br label %if.end

if.end:                                           ; preds = %if.then, %entry
  %2 = load ptr, ptr %options.addr, align 8
  %enforce_mode = getelementptr inbounds %"struct.google::protobuf::compiler::cpp::Options", ptr %2, i32 0, i32 7
  %3 = load i32, ptr %enforce_mode, align 8
  switch i32 %3, label %sw.epilog [
    i32 1, label %sw.bb
    i32 3, label %sw.bb1
    i32 2, label %sw.bb2
    i32 0, label %sw.bb9
  ]

sw.bb:                                            ; preds = %if.end
  store i32 1, ptr %retval, align 4
  br label %return

sw.bb1:                                           ; preds = %if.end
  store i32 3, ptr %retval, align 4
  br label %return

sw.bb2:                                           ; preds = %if.end
  %4 = load ptr, ptr %file.addr, align 8
  %call = call noundef nonnull align 8 dereferenceable(176) ptr @_ZNK6google8protobuf14FileDescriptor7optionsEv(ptr noundef nonnull align 8 dereferenceable(168) %4)
  %call3 = call noundef i32 @_ZNK6google8protobuf11FileOptions12optimize_forEv(ptr noundef nonnull align 8 dereferenceable(176) %call)
  %cmp = icmp eq i32 %call3, 3
  br i1 %cmp, label %if.then4, label %if.end5

if.then4:                                         ; preds = %sw.bb2
  store i32 3, ptr %retval, align 4
  br label %return

if.end5:                                          ; preds = %sw.bb2
  %5 = load ptr, ptr %file.addr, align 8
  %6 = load ptr, ptr %options.addr, align 8
  %7 = load ptr, ptr %has_opt_codesize_extension.addr, align 8
  %call6 = call noundef zeroext i1 @_ZN6google8protobuf8compiler3cppL19HasBootstrapProblemEPKNS0_14FileDescriptorERKNS2_7OptionsEPb(ptr noundef %5, ptr noundef nonnull align 8 dereferenceable(206) %6, ptr noundef %7)
  br i1 %call6, label %if.then7, label %if.end8

if.then7:                                         ; preds = %if.end5
  store i32 1, ptr %retval, align 4
  br label %return

if.end8:                                          ; preds = %if.end5
  store i32 2, ptr %retval, align 4
  br label %return

sw.bb9:                                           ; preds = %if.end
  %8 = load ptr, ptr %file.addr, align 8
  %call10 = call noundef nonnull align 8 dereferenceable(176) ptr @_ZNK6google8protobuf14FileDescriptor7optionsEv(ptr noundef nonnull align 8 dereferenceable(168) %8)
  %call11 = call noundef i32 @_ZNK6google8protobuf11FileOptions12optimize_forEv(ptr noundef nonnull align 8 dereferenceable(176) %call10)
  %cmp12 = icmp eq i32 %call11, 2
  br i1 %cmp12, label %if.then13, label %if.end22

if.then13:                                        ; preds = %sw.bb9
  %9 = load ptr, ptr %file.addr, align 8
  %10 = load ptr, ptr %options.addr, align 8
  %11 = load ptr, ptr %has_opt_codesize_extension.addr, align 8
  %call14 = call noundef zeroext i1 @_ZN6google8protobuf8compiler3cppL19HasBootstrapProblemEPKNS0_14FileDescriptorERKNS2_7OptionsEPb(ptr noundef %9, ptr noundef nonnull align 8 dereferenceable(206) %10, ptr noundef %11)
  br i1 %call14, label %if.then15, label %if.end21

if.then15:                                        ; preds = %if.then13
  call void @_ZN4absl12lts_2023080212log_internal10LogMessageC1EPKciNS2_10WarningTagE(ptr noundef nonnull align 8 dereferenceable(16) %ref.tmp16, ptr noundef @.str.44, i32 noundef 1858) #24
  %call17 = invoke noundef nonnull align 8 dereferenceable(16) ptr @_ZN4absl12lts_2023080212log_internal10LogMessage14InternalStreamEv(ptr noundef nonnull align 8 dereferenceable(16) %ref.tmp16)
          to label %invoke.cont unwind label %lpad

invoke.cont:                                      ; preds = %if.then15
  %call19 = invoke noundef nonnull align 8 dereferenceable(16) ptr @_ZN4absl12lts_2023080212log_internal10LogMessagelsILi136EEERS2_RAT__Kc(ptr noundef nonnull align 8 dereferenceable(16) %call17, ptr noundef nonnull align 1 dereferenceable(136) @.str.142)
          to label %invoke.cont18 unwind label %lpad

invoke.cont18:                                    ; preds = %invoke.cont
  invoke void @_ZNKO4absl12lts_2023080212log_internal7VoidifyaaINS1_10LogMessageEEEvRKT_(ptr noundef nonnull align 1 dereferenceable(1) %ref.tmp, ptr noundef nonnull align 8 dereferenceable(16) %call19)
          to label %invoke.cont20 unwind label %lpad

invoke.cont20:                                    ; preds = %invoke.cont18
  call void @_ZN4absl12lts_2023080212log_internal10LogMessageD1Ev(ptr noundef nonnull align 8 dereferenceable(16) %ref.tmp16) #28
  store i32 1, ptr %retval, align 4
  br label %return

lpad:                                             ; preds = %invoke.cont18, %invoke.cont, %if.then15
  %12 = landingpad { ptr, i32 }
          cleanup
  %13 = extractvalue { ptr, i32 } %12, 0
  store ptr %13, ptr %exn.slot, align 8
  %14 = extractvalue { ptr, i32 } %12, 1
  store i32 %14, ptr %ehselector.slot, align 4
  call void @_ZN4absl12lts_2023080212log_internal10LogMessageD1Ev(ptr noundef nonnull align 8 dereferenceable(16) %ref.tmp16) #28
  br label %eh.resume

if.end21:                                         ; preds = %if.then13
  br label %if.end22

if.end22:                                         ; preds = %if.end21, %sw.bb9
  %15 = load ptr, ptr %file.addr, align 8
  %call23 = call noundef nonnull align 8 dereferenceable(176) ptr @_ZNK6google8protobuf14FileDescriptor7optionsEv(ptr noundef nonnull align 8 dereferenceable(168) %15)
  %call24 = call noundef i32 @_ZNK6google8protobuf11FileOptions12optimize_forEv(ptr noundef nonnull align 8 dereferenceable(176) %call23)
  store i32 %call24, ptr %retval, align 4
  br label %return

sw.epilog:                                        ; preds = %if.end
  call void @_ZN4absl12lts_2023080212log_internal15LogMessageFatalC1EPKci(ptr noundef nonnull align 8 dereferenceable(16) %ref.tmp26, ptr noundef @.str.44, i32 noundef 1868) #24
  %call29 = invoke noundef nonnull align 8 dereferenceable(16) ptr @_ZN4absl12lts_2023080212log_internal10LogMessage14InternalStreamEv(ptr noundef nonnull align 8 dereferenceable(16) %ref.tmp26)
          to label %invoke.cont28 unwind label %lpad27

invoke.cont28:                                    ; preds = %sw.epilog
  %call31 = invoke noundef nonnull align 8 dereferenceable(16) ptr @_ZN4absl12lts_2023080212log_internal10LogMessagelsILi44EEERS2_RAT__Kc(ptr noundef nonnull align 8 dereferenceable(16) %call29, ptr noundef nonnull align 1 dereferenceable(44) @.str.143)
          to label %invoke.cont30 unwind label %lpad27

invoke.cont30:                                    ; preds = %invoke.cont28
  invoke void @_ZNKO4absl12lts_2023080212log_internal7VoidifyaaINS1_10LogMessageEEEvRKT_(ptr noundef nonnull align 1 dereferenceable(1) %ref.tmp25, ptr noundef nonnull align 8 dereferenceable(16) %call31)
          to label %invoke.cont32 unwind label %lpad27

invoke.cont32:                                    ; preds = %invoke.cont30
  call void @_ZN4absl12lts_2023080212log_internal15LogMessageFatalD1Ev(ptr noundef nonnull align 8 dereferenceable(16) %ref.tmp26) #23
  unreachable

lpad27:                                           ; preds = %invoke.cont30, %invoke.cont28, %sw.epilog
  %16 = landingpad { ptr, i32 }
          cleanup
  %17 = extractvalue { ptr, i32 } %16, 0
  store ptr %17, ptr %exn.slot, align 8
  %18 = extractvalue { ptr, i32 } %16, 1
  store i32 %18, ptr %ehselector.slot, align 4
  call void @_ZN4absl12lts_2023080212log_internal15LogMessageFatalD1Ev(ptr noundef nonnull align 8 dereferenceable(16) %ref.tmp26) #23
  unreachable

19:                                               ; No predecessors!
  br label %eh.resume

return:                                           ; preds = %if.end22, %invoke.cont20, %if.end8, %if.then7, %if.then4, %sw.bb1, %sw.bb
  %20 = load i32, ptr %retval, align 4
  ret i32 %20

eh.resume:                                        ; preds = %19, %lpad
  %exn = load ptr, ptr %exn.slot, align 8
  %sel = load i32, ptr %ehselector.slot, align 4
  %lpad.val = insertvalue { ptr, i32 } poison, ptr %exn, 0
  %lpad.val33 = insertvalue { ptr, i32 } %lpad.val, i32 %sel, 1
  resume { ptr, i32 } %lpad.val33
}