; Function Attrs: mustprogress uwtable
define hidden noundef i32 @_ZN6google8protobuf8compiler3cpp14GetOptimizeForEPKNS0_14FileDescriptorERKNS2_7OptionsEPb(ptr noundef %file, ptr nocapture noundef nonnull readonly align 8 dereferenceable(206) %options, ptr noundef %has_opt_codesize_extension) local_unnamed_addr #4 personality ptr @__gxx_personality_v0 {
entry:
  %ref.tmp16 = alloca %"class.absl::lts_20230802::log_internal::LogMessage", align 8
  %ref.tmp26 = alloca %"class.absl::lts_20230802::log_internal::LogMessageFatal", align 8
  %tobool.not = icmp eq ptr %has_opt_codesize_extension, null
  br i1 %tobool.not, label %if.end, label %if.then

if.then:                                          ; preds = %entry
  store i8 0, ptr %has_opt_codesize_extension, align 1
  br label %if.end

if.end:                                           ; preds = %if.then, %entry
  %enforce_mode = getelementptr inbounds i8, ptr %options, i64 184
  %0 = load i32, ptr %enforce_mode, align 8
  switch i32 %0, label %sw.epilog [
    i32 1, label %return
    i32 3, label %sw.bb1
    i32 2, label %sw.bb2
    i32 0, label %sw.bb9
  ]

sw.bb1:                                           ; preds = %if.end
  br label %return

sw.bb2:                                           ; preds = %if.end
  %options_.i = getelementptr inbounds i8, ptr %file, i64 128
  %1 = load ptr, ptr %options_.i, align 8
  %optimize_for_.i.i = getelementptr inbounds i8, ptr %1, i64 168
  %2 = load i32, ptr %optimize_for_.i.i, align 8
  %cmp = icmp eq i32 %2, 3
  br i1 %cmp, label %return, label %if.end5

if.end5:                                          ; preds = %sw.bb2
  %call6 = tail call fastcc noundef zeroext i1 @_ZN6google8protobuf8compiler3cppL19HasBootstrapProblemEPKNS0_14FileDescriptorERKNS2_7OptionsEPb(ptr noundef nonnull %file, ptr noundef nonnull align 8 dereferenceable(206) %options, ptr noundef %has_opt_codesize_extension)
  %. = select i1 %call6, i32 1, i32 2
  br label %return

sw.bb9:                                           ; preds = %if.end
  %options_.i10 = getelementptr inbounds i8, ptr %file, i64 128
  %3 = load ptr, ptr %options_.i10, align 8
  %optimize_for_.i.i11 = getelementptr inbounds i8, ptr %3, i64 168
  %4 = load i32, ptr %optimize_for_.i.i11, align 8
  %cmp12 = icmp eq i32 %4, 2
  br i1 %cmp12, label %if.then13, label %return

if.then13:                                        ; preds = %sw.bb9
  %call14 = tail call fastcc noundef zeroext i1 @_ZN6google8protobuf8compiler3cppL19HasBootstrapProblemEPKNS0_14FileDescriptorERKNS2_7OptionsEPb(ptr noundef nonnull %file, ptr noundef nonnull align 8 dereferenceable(206) %options, ptr noundef %has_opt_codesize_extension)
  br i1 %call14, label %if.then15, label %if.then13.if.end22_crit_edge

if.then13.if.end22_crit_edge:                     ; preds = %if.then13
  %.pre = load ptr, ptr %options_.i10, align 8
  %optimize_for_.i.i13.phi.trans.insert = getelementptr inbounds i8, ptr %.pre, i64 168
  %.pre14 = load i32, ptr %optimize_for_.i.i13.phi.trans.insert, align 8
  br label %return

if.then15:                                        ; preds = %if.then13
  call void @_ZN4absl12lts_2023080212log_internal10LogMessageC1EPKciNS2_10WarningTagE(ptr noundef nonnull align 8 dereferenceable(16) %ref.tmp16, ptr noundef nonnull @.str.44, i32 noundef 1858) #28
  invoke void @_ZN4absl12lts_2023080212log_internal10LogMessage19CopyToEncodedBufferILNS2_10StringTypeE0EEEvSt17basic_string_viewIcSt11char_traitsIcEE(ptr noundef nonnull align 8 dereferenceable(16) %ref.tmp16, i64 135, ptr nonnull @.str.142)
          to label %invoke.cont18 unwind label %lpad

invoke.cont18:                                    ; preds = %if.then15
  call void @_ZN4absl12lts_2023080212log_internal10LogMessageD1Ev(ptr noundef nonnull align 8 dereferenceable(16) %ref.tmp16) #32
  br label %return

lpad:                                             ; preds = %if.then15
  %5 = landingpad { ptr, i32 }
          cleanup
  call void @_ZN4absl12lts_2023080212log_internal10LogMessageD1Ev(ptr noundef nonnull align 8 dereferenceable(16) %ref.tmp16) #32
  resume { ptr, i32 } %5

sw.epilog:                                        ; preds = %if.end
  call void @_ZN4absl12lts_2023080212log_internal15LogMessageFatalC1EPKci(ptr noundef nonnull align 8 dereferenceable(16) %ref.tmp26, ptr noundef nonnull @.str.44, i32 noundef 1868) #28
  %call31 = invoke noundef nonnull align 8 dereferenceable(16) ptr @_ZN4absl12lts_2023080212log_internal10LogMessagelsILi44EEERS2_RAT__Kc(ptr noundef nonnull align 8 dereferenceable(16) %ref.tmp26, ptr noundef nonnull align 1 dereferenceable(44) @.str.143)
          to label %invoke.cont30 unwind label %lpad27

invoke.cont30:                                    ; preds = %sw.epilog
  call void @_ZN4absl12lts_2023080212log_internal15LogMessageFatalD1Ev(ptr noundef nonnull align 8 dereferenceable(16) %ref.tmp26) #29
  unreachable

lpad27:                                           ; preds = %sw.epilog
  %6 = landingpad { ptr, i32 }
          cleanup
  call void @_ZN4absl12lts_2023080212log_internal15LogMessageFatalD1Ev(ptr noundef nonnull align 8 dereferenceable(16) %ref.tmp26) #29
  unreachable

return:                                           ; preds = %sw.bb9, %if.then13.if.end22_crit_edge, %if.end5, %sw.bb2, %if.end, %invoke.cont18, %sw.bb1
  %retval.0 = phi i32 [ 1, %invoke.cont18 ], [ 3, %sw.bb1 ], [ %0, %if.end ], [ 3, %sw.bb2 ], [ %., %if.end5 ], [ %.pre14, %if.then13.if.end22_crit_edge ], [ %4, %sw.bb9 ]
  ret i32 %retval.0
}